; Function Attrs: mustprogress nofree norecurse nosync nounwind willreturn memory(argmem: readwrite) uwtable
define dso_local void @archive_entry_set_rdev(ptr noundef captures(none) initializes((16, 20), (160, 164), (168, 192)) %0, i64 noundef %1) local_unnamed_addr #7 {
  %3 = getelementptr inbounds nuw i8, ptr %0, i64 16
  store i32 0, ptr %3, align 8, !tbaa !78
  %4 = getelementptr inbounds nuw i8, ptr %0, i64 168
  store i64 %1, ptr %4, align 8, !tbaa !75
  %5 = getelementptr inbounds nuw i8, ptr %0, i64 160
  store i32 0, ptr %5, align 8, !tbaa !72
  %6 = getelementptr inbounds nuw i8, ptr %0, i64 176
  %7 = getelementptr inbounds nuw i8, ptr %0, i64 192
  tail call void @llvm.memset.p0.i64(ptr noundef nonnull align 8 dereferenceable(16) %6, i8 0, i64 16, i1 false)
  %8 = load i32, ptr %7, align 8, !tbaa !31
  %9 = or i32 %8, 8192
  store i32 %9, ptr %7, align 8, !tbaa !31
  ret void
}